; ModuleID = '50/102.c'
source_filename = "50/102.c"
target datalayout = "e-m:e-p270:32:32-p271:32:32-p272:64:64-i64:64-f80:128-n8:16:32:64-S128"
target triple = "x86_64-pc-linux-gnu"

@__const.main.day = private unnamed_addr constant [12 x i32] [i32 13, i32 44, i32 72, i32 103, i32 133, i32 164, i32 194, i32 225, i32 256, i32 286, i32 317, i32 347], align 16
@.str = private unnamed_addr constant [3 x i8] c"%d\00", align 1
@.str.1 = private unnamed_addr constant [4 x i8] c"%d\0A\00", align 1

; Function Attrs: noinline nounwind uwtable
define dso_local i32 @main() #0 {
  %1 = alloca i32, align 4
  %2 = alloca i32, align 4
  %3 = alloca i32, align 4
  %4 = alloca i32, align 4
  %5 = alloca [12 x i32], align 16
  %6 = alloca [60 x i32], align 16
  store i32 0, i32* %1, align 4
  %7 = bitcast [12 x i32]* %5 to i8*
  call void @llvm.memcpy.p0i8.p0i8.i64(i8* align 16 %7, i8* align 16 bitcast ([12 x i32]* @__const.main.day to i8*), i64 48, i1 false)
  %8 = call i32 (i8*, ...) @__isoc99_scanf(i8* getelementptr inbounds ([3 x i8], [3 x i8]* @.str, i64 0, i64 0), i32* %2)
  %9 = load i32, i32* %2, align 4
  %10 = icmp sle i32 %9, 5
  br i1 %10, label %11, label %15

11:                                               ; preds = %0
  %12 = load i32, i32* %2, align 4
  %13 = sub nsw i32 6, %12
  %14 = getelementptr inbounds [60 x i32], [60 x i32]* %6, i64 0, i64 0
  store i32 %13, i32* %14, align 16
  br label %19

15:                                               ; preds = %0
  %16 = load i32, i32* %2, align 4
  %17 = sub nsw i32 13, %16
  %18 = getelementptr inbounds [60 x i32], [60 x i32]* %6, i64 0, i64 0
  store i32 %17, i32* %18, align 16
  br label %19

19:                                               ; preds = %15, %11
  store i32 1, i32* %4, align 4
  br label %20

20:                                               ; preds = %32, %19
  %21 = load i32, i32* %4, align 4
  %22 = icmp sle i32 %21, 59
  br i1 %22, label %23, label %35

23:                                               ; preds = %20
  %24 = getelementptr inbounds [60 x i32], [60 x i32]* %6, i64 0, i64 0
  %25 = load i32, i32* %24, align 16
  %26 = load i32, i32* %4, align 4
  %27 = mul nsw i32 7, %26
  %28 = add nsw i32 %25, %27
  %29 = load i32, i32* %4, align 4
  %30 = sext i32 %29 to i64
  %31 = getelementptr inbounds [60 x i32], [60 x i32]* %6, i64 0, i64 %30
  store i32 %28, i32* %31, align 4
  br label %32

32:                                               ; preds = %23
  %33 = load i32, i32* %4, align 4
  %34 = add nsw i32 %33, 1
  store i32 %34, i32* %4, align 4
  br label %20

35:                                               ; preds = %20
  store i32 0, i32* %3, align 4
  br label %36

36:                                               ; preds = %62, %35
  %37 = load i32, i32* %3, align 4
  %38 = icmp sle i32 %37, 11
  br i1 %38, label %39, label %65

39:                                               ; preds = %36
  store i32 0, i32* %4, align 4
  br label %40

40:                                               ; preds = %58, %39
  %41 = load i32, i32* %4, align 4
  %42 = icmp sle i32 %41, 59
  br i1 %42, label %43, label %61

43:                                               ; preds = %40
  %44 = load i32, i32* %4, align 4
  %45 = sext i32 %44 to i64
  %46 = getelementptr inbounds [60 x i32], [60 x i32]* %6, i64 0, i64 %45
  %47 = load i32, i32* %46, align 4
  %48 = load i32, i32* %3, align 4
  %49 = sext i32 %48 to i64
  %50 = getelementptr inbounds [12 x i32], [12 x i32]* %5, i64 0, i64 %49
  %51 = load i32, i32* %50, align 4
  %52 = icmp eq i32 %47, %51
  br i1 %52, label %53, label %57

53:                                               ; preds = %43
  %54 = load i32, i32* %3, align 4
  %55 = add nsw i32 %54, 1
  %56 = call i32 (i8*, ...) @printf(i8* getelementptr inbounds ([4 x i8], [4 x i8]* @.str.1, i64 0, i64 0), i32 %55)
  br label %57

57:                                               ; preds = %53, %43
  br label %58

58:                                               ; preds = %57
  %59 = load i32, i32* %4, align 4
  %60 = add nsw i32 %59, 1
  store i32 %60, i32* %4, align 4
  br label %40

61:                                               ; preds = %40
  br label %62

62:                                               ; preds = %61
  %63 = load i32, i32* %3, align 4
  %64 = add nsw i32 %63, 1
  store i32 %64, i32* %3, align 4
  br label %36

65:                                               ; preds = %36
  ret i32 0
}

; Function Attrs: argmemonly nounwind willreturn
declare void @llvm.memcpy.p0i8.p0i8.i64(i8* noalias nocapture writeonly, i8* noalias nocapture readonly, i64, i1 immarg) #1

declare dso_local i32 @__isoc99_scanf(i8*, ...) #2

declare dso_local i32 @printf(i8*, ...) #2


!llvm.module.flags = !{!0}
!llvm.ident = !{!1}

!0 = !{i32 1, !"wchar_size", i32 4}
!1 = !{!"clang version 10.0.0-4ubuntu1 "}
